; Function Attrs: nounwind uwtable
define dso_local range(i32 -1, 1) i32 @_PyMonitoring_FirePyStartEvent(ptr noundef captures(none) %0, ptr noundef %1, i32 noundef %2) local_unnamed_addr #2 {
  %4 = alloca [3 x ptr], align 16
  call void @llvm.lifetime.start.p0(i64 24, ptr nonnull %4) #11
  call void @llvm.memset.p0.i64(ptr noundef nonnull align 16 dereferenceable(24) %4, i8 0, i64 16, i1 false)
  %5 = tail call align 8 ptr @llvm.threadlocal.address.p0(ptr align 8 @_Py_tss_tstate)
  %6 = load ptr, ptr %5, align 8, !tbaa !76
  %7 = getelementptr inbounds nuw i8, ptr %6, i64 16
  %8 = load ptr, ptr %7, align 8, !tbaa !47
  %9 = load i8, ptr %0, align 1, !tbaa !188
  %10 = getelementptr inbounds nuw i8, ptr %4, i64 8
  store ptr %1, ptr %10, align 8, !tbaa !46
  %11 = icmp slt i32 %2, 0
  br i1 %11, label %12, label %14

12:                                               ; preds = %3
  %13 = load ptr, ptr @PyExc_ValueError, align 8, !tbaa !46
  tail call void @PyErr_SetString(ptr noundef %13, ptr noundef nonnull @.str.55) #11
  br label %capi_call_instrumentation.exit

14:                                               ; preds = %3
  %15 = zext nneg i32 %2 to i64
  %16 = tail call ptr @PyLong_FromLong(i64 noundef %15) #11
  %.not48.i = icmp eq ptr %16, null
  br i1 %.not48.i, label %capi_call_instrumentation.exit, label %17

17:                                               ; preds = %14
  %18 = getelementptr inbounds nuw i8, ptr %4, i64 16
  store ptr %16, ptr %18, align 16, !tbaa !46
  %.not4954.i = icmp eq i8 %9, 0
  br i1 %.not4954.i, label %capi_call_instrumentation.exit, label %.lr.ph.split.us.i

.lr.ph.split.us.i:                                ; preds = %17, %Py_DECREF.exit.us.i
  %.03855.us.i = phi i8 [ %34, %Py_DECREF.exit.us.i ], [ %9, %17 ]
  %19 = icmp ugt i8 %.03855.us.i, 15
  br i1 %19, label %25, label %20

20:                                               ; preds = %.lr.ph.split.us.i
  %21 = zext nneg i8 %.03855.us.i to i64
  %22 = getelementptr [16 x i8], ptr @MOST_SIGNIFICANT_BITS, i64 0, i64 %21
  %23 = load i8, ptr %22, align 1, !tbaa !33
  %24 = sext i8 %23 to i32
  br label %most_significant_bit.exit.us.i

25:                                               ; preds = %.lr.ph.split.us.i
  %26 = lshr i8 %.03855.us.i, 4
  %27 = zext nneg i8 %26 to i64
  %28 = getelementptr [16 x i8], ptr @MOST_SIGNIFICANT_BITS, i64 0, i64 %27
  %29 = load i8, ptr %28, align 1, !tbaa !33
  %30 = sext i8 %29 to i32
  %31 = add nsw i32 %30, 4
  br label %most_significant_bit.exit.us.i

most_significant_bit.exit.us.i:                   ; preds = %25, %20
  %.0.i.us.i = phi i32 [ %31, %25 ], [ %24, %20 ]
  %32 = shl nuw i32 1, %.0.i.us.i
  %33 = trunc i32 %32 to i8
  %34 = xor i8 %.03855.us.i, %33
  %35 = trunc i32 %.0.i.us.i to i8
  %36 = call fastcc i32 @call_one_instrument(ptr noundef %8, ptr noundef %6, ptr noundef nonnull %10, i64 noundef -9223372036854775806, i8 noundef signext %35, i32 noundef 0)
  %37 = icmp eq i32 %36, 0
  br i1 %37, label %Py_DECREF.exit.us.i, label %38

38:                                               ; preds = %most_significant_bit.exit.us.i
  %39 = icmp slt i32 %36, 0
  br i1 %39, label %capi_call_instrumentation.exit, label %40

40:                                               ; preds = %38
  %41 = load i8, ptr %0, align 1, !tbaa !188
  %42 = xor i8 %33, -1
  %43 = and i8 %41, %42
  store i8 %43, ptr %0, align 1, !tbaa !188
  br label %Py_DECREF.exit.us.i

Py_DECREF.exit.us.i:                              ; preds = %40, %most_significant_bit.exit.us.i
  %.not49.us.i = icmp eq i8 %.03855.us.i, %33
  br i1 %.not49.us.i, label %capi_call_instrumentation.exit, label %.lr.ph.split.us.i

capi_call_instrumentation.exit:                   ; preds = %38, %Py_DECREF.exit.us.i, %12, %14, %17
  %.0.i = phi i32 [ -1, %12 ], [ -1, %14 ], [ 0, %17 ], [ -1, %38 ], [ 0, %Py_DECREF.exit.us.i ]
  call void @llvm.lifetime.end.p0(i64 24, ptr nonnull %4) #11
  ret i32 %.0.i
}